; Function Attrs: mustprogress nofree norecurse nosync nounwind memory(read, argmem: readwrite, inaccessiblemem: none) uwtable
define i32 @ubidi_getParagraph_77(ptr noundef readonly %0, i32 noundef %1, ptr noundef writeonly %2, ptr noundef writeonly %3, ptr noundef writeonly %4, ptr noundef %5) local_unnamed_addr #11 {
  %7 = icmp eq ptr %5, null
  br i1 %7, label %ubidi_getParagraphByIndex_77.exit, label %8

8:                                                ; preds = %6
  %9 = load i32, ptr %5, align 4, !tbaa !23
  %10 = icmp slt i32 %9, 1
  br i1 %10, label %11, label %ubidi_getParagraphByIndex_77.exit

11:                                               ; preds = %8
  %.not30 = icmp eq ptr %0, null
  br i1 %.not30, label %19, label %12

12:                                               ; preds = %11
  %13 = load ptr, ptr %0, align 8, !tbaa !27
  %14 = icmp eq ptr %13, %0
  br i1 %14, label %20, label %15

15:                                               ; preds = %12
  %.not31 = icmp eq ptr %13, null
  br i1 %.not31, label %19, label %16

16:                                               ; preds = %15
  %17 = load ptr, ptr %13, align 8, !tbaa !27
  %18 = icmp eq ptr %17, %13
  br i1 %18, label %20, label %19

19:                                               ; preds = %16, %15, %11
  store i32 27, ptr %5, align 4, !tbaa !23
  br label %ubidi_getParagraphByIndex_77.exit

20:                                               ; preds = %16, %12
  %21 = icmp slt i32 %1, 0
  br i1 %21, label %27, label %22

22:                                               ; preds = %20
  %23 = getelementptr inbounds nuw i8, ptr %13, i64 20
  %24 = load i32, ptr %23, align 4, !tbaa !51
  %.not32 = icmp slt i32 %1, %24
  br i1 %.not32, label %.preheader, label %27

.preheader:                                       ; preds = %22
  %25 = getelementptr inbounds nuw i8, ptr %13, i64 208
  %26 = load ptr, ptr %25, align 8, !tbaa !41
  br label %28

27:                                               ; preds = %22, %20
  store i32 1, ptr %5, align 4, !tbaa !23
  br label %ubidi_getParagraphByIndex_77.exit

28:                                               ; preds = %28, %.preheader
  %indvars.iv = phi i64 [ %indvars.iv.next, %28 ], [ 0, %.preheader ]
  %29 = getelementptr inbounds nuw %struct.Para, ptr %26, i64 %indvars.iv
  %30 = load i32, ptr %29, align 4, !tbaa !42
  %.not33 = icmp slt i32 %1, %30
  %indvars.iv.next = add nuw nsw i64 %indvars.iv, 1
  br i1 %.not33, label %31, label %28, !llvm.loop !145

31:                                               ; preds = %28
  %32 = trunc nuw nsw i64 %indvars.iv to i32
  %33 = load ptr, ptr %13, align 8, !tbaa !27
  %34 = icmp eq ptr %33, %13
  br i1 %34, label %40, label %35

35:                                               ; preds = %31
  %.not39.i = icmp eq ptr %33, null
  br i1 %.not39.i, label %39, label %36

36:                                               ; preds = %35
  %37 = load ptr, ptr %33, align 8, !tbaa !27
  %38 = icmp eq ptr %37, %33
  br i1 %38, label %40, label %39

39:                                               ; preds = %36, %35
  store i32 27, ptr %5, align 4, !tbaa !23
  br label %ubidi_getParagraphByIndex_77.exit

40:                                               ; preds = %36, %31
  %41 = getelementptr inbounds nuw i8, ptr %13, i64 200
  %42 = load i32, ptr %41, align 8, !tbaa !40
  %.not40.i = icmp sgt i32 %42, %32
  br i1 %.not40.i, label %44, label %43

43:                                               ; preds = %40
  store i32 1, ptr %5, align 4, !tbaa !23
  br label %ubidi_getParagraphByIndex_77.exit

44:                                               ; preds = %40
  %.not41.i = icmp eq i64 %indvars.iv, 0
  br i1 %.not41.i, label %51, label %45

45:                                               ; preds = %44
  %46 = getelementptr inbounds nuw i8, ptr %33, i64 208
  %47 = load ptr, ptr %46, align 8, !tbaa !41
  %48 = getelementptr %struct.Para, ptr %47, i64 %indvars.iv
  %49 = getelementptr i8, ptr %48, i64 -8
  %50 = load i32, ptr %49, align 4, !tbaa !42
  br label %51

51:                                               ; preds = %45, %44
  %.0.i = phi i32 [ %50, %45 ], [ 0, %44 ]
  %.not42.i = icmp eq ptr %2, null
  br i1 %.not42.i, label %53, label %52

52:                                               ; preds = %51
  store i32 %.0.i, ptr %2, align 4, !tbaa !25
  br label %53

53:                                               ; preds = %52, %51
  %.not43.i = icmp eq ptr %3, null
  br i1 %.not43.i, label %59, label %54

54:                                               ; preds = %53
  %55 = getelementptr inbounds nuw i8, ptr %33, i64 208
  %56 = load ptr, ptr %55, align 8, !tbaa !41
  %57 = getelementptr inbounds nuw %struct.Para, ptr %56, i64 %indvars.iv
  %58 = load i32, ptr %57, align 4, !tbaa !42
  store i32 %58, ptr %3, align 4, !tbaa !25
  br label %59

59:                                               ; preds = %54, %53
  %.not44.i = icmp eq ptr %4, null
  br i1 %.not44.i, label %ubidi_getParagraphByIndex_77.exit, label %60

60:                                               ; preds = %59
  %61 = getelementptr inbounds nuw i8, ptr %33, i64 142
  %62 = load i8, ptr %61, align 2, !tbaa !74
  %.not45.i = icmp eq i8 %62, 0
  br i1 %.not45.i, label %68, label %63

63:                                               ; preds = %60
  %64 = getelementptr inbounds nuw i8, ptr %33, i64 208
  %65 = load ptr, ptr %64, align 8, !tbaa !41
  %66 = load i32, ptr %65, align 4, !tbaa !42
  %67 = icmp slt i32 %.0.i, %66
  br i1 %67, label %68, label %71

68:                                               ; preds = %63, %60
  %69 = getelementptr inbounds nuw i8, ptr %33, i64 141
  %70 = load i8, ptr %69, align 1, !tbaa !66
  br label %88

71:                                               ; preds = %63
  %72 = getelementptr inbounds nuw i8, ptr %33, i64 200
  %73 = load i32, ptr %72, align 8, !tbaa !40
  %74 = icmp sgt i32 %73, 0
  br i1 %74, label %.lr.ph.i.i, label %._crit_edge.thread.i.i

.lr.ph.i.i:                                       ; preds = %71
  %wide.trip.count.i.i = zext nneg i32 %73 to i64
  br label %75

75:                                               ; preds = %79, %.lr.ph.i.i
  %indvars.iv.i.i = phi i64 [ 0, %.lr.ph.i.i ], [ %indvars.iv.next.i.i, %79 ]
  %76 = getelementptr inbounds nuw %struct.Para, ptr %65, i64 %indvars.iv.i.i
  %77 = load i32, ptr %76, align 4, !tbaa !42
  %78 = icmp slt i32 %.0.i, %77
  br i1 %78, label %81, label %79

79:                                               ; preds = %75
  %indvars.iv.next.i.i = add nuw nsw i64 %indvars.iv.i.i, 1
  %exitcond.not.i.i = icmp eq i64 %indvars.iv.next.i.i, %wide.trip.count.i.i
  br i1 %exitcond.not.i.i, label %._crit_edge.thread.i.i, label %75, !llvm.loop !44

._crit_edge.thread.i.i:                           ; preds = %79, %71
  %80 = add nsw i32 %73, -1
  br label %ubidi_getParaLevelAtIndex_77.exit.i

81:                                               ; preds = %75
  %82 = trunc nuw nsw i64 %indvars.iv.i.i to i32
  br label %ubidi_getParaLevelAtIndex_77.exit.i

ubidi_getParaLevelAtIndex_77.exit.i:              ; preds = %81, %._crit_edge.thread.i.i
  %83 = phi i32 [ %82, %81 ], [ %80, %._crit_edge.thread.i.i ]
  %84 = sext i32 %83 to i64
  %85 = getelementptr inbounds %struct.Para, ptr %65, i64 %84, i32 1
  %86 = load i32, ptr %85, align 4, !tbaa !46
  %87 = trunc i32 %86 to i8
  br label %88

88:                                               ; preds = %ubidi_getParaLevelAtIndex_77.exit.i, %68
  %89 = phi i8 [ %70, %68 ], [ %87, %ubidi_getParaLevelAtIndex_77.exit.i ]
  store i8 %89, ptr %4, align 1, !tbaa !59
  br label %ubidi_getParagraphByIndex_77.exit

ubidi_getParagraphByIndex_77.exit:                ; preds = %88, %59, %43, %39, %6, %8, %27, %19
  %.025 = phi i32 [ -1, %27 ], [ -1, %19 ], [ -1, %8 ], [ -1, %6 ], [ %32, %39 ], [ %32, %43 ], [ %32, %59 ], [ %32, %88 ]
  ret i32 %.025
}